; Function Attrs: mustprogress uwtable
define hidden void @_ZNK3ue234RoseInstrCheckMultipathShufti32x165writeEPvRNS_14RoseEngineBlobERKSt13unordered_mapIPKNS_15RoseInstructionEjSt4hashIS7_ESt8equal_toIS7_ESaISt4pairIKS7_jEEE(ptr noundef nonnull align 8 dereferenceable(296) %0, ptr noundef writeonly captures(none) initializes((0, 188)) %1, ptr nonnull readnone align 8 captures(none) %2, ptr noundef nonnull readonly align 8 captures(none) dereferenceable(56) %3) unnamed_addr #5 align 2 personality ptr @__gxx_personality_v0 {
  tail call void @llvm.memset.p0.i64(ptr noundef nonnull align 4 dereferenceable(188) %1, i8 0, i64 188, i1 false)
  store i8 59, ptr %1, align 4
  %5 = getelementptr inbounds nuw i8, ptr %0, i64 8
  %6 = getelementptr inbounds nuw i8, ptr %1, i64 1
  tail call void @llvm.memmove.p0.p0.i64(ptr noundef nonnull align 1 dereferenceable(32) %6, ptr noundef nonnull align 8 dereferenceable(32) %5, i64 32, i1 false)
  %7 = getelementptr inbounds nuw i8, ptr %0, i64 40
  %8 = getelementptr inbounds nuw i8, ptr %1, i64 33
  tail call void @llvm.memmove.p0.p0.i64(ptr noundef nonnull align 1 dereferenceable(32) %8, ptr noundef nonnull align 8 dereferenceable(32) %7, i64 32, i1 false)
  %9 = getelementptr inbounds nuw i8, ptr %0, i64 72
  %10 = getelementptr inbounds nuw i8, ptr %1, i64 65
  tail call void @llvm.memmove.p0.p0.i64(ptr noundef nonnull align 1 dereferenceable(32) %10, ptr noundef nonnull align 8 dereferenceable(32) %9, i64 32, i1 false)
  %11 = getelementptr inbounds nuw i8, ptr %0, i64 136
  %12 = getelementptr inbounds nuw i8, ptr %1, i64 97
  tail call void @llvm.memmove.p0.p0.i64(ptr noundef nonnull align 1 dereferenceable(32) %12, ptr noundef nonnull align 8 dereferenceable(32) %11, i64 32, i1 false)
  %13 = getelementptr inbounds nuw i8, ptr %0, i64 200
  %14 = getelementptr inbounds nuw i8, ptr %1, i64 129
  tail call void @llvm.memmove.p0.p0.i64(ptr noundef nonnull align 1 dereferenceable(32) %14, ptr noundef nonnull align 8 dereferenceable(32) %13, i64 32, i1 false)
  %15 = getelementptr inbounds nuw i8, ptr %0, i64 264
  %16 = load i32, ptr %15, align 8
  %17 = getelementptr inbounds nuw i8, ptr %1, i64 164
  store i32 %16, ptr %17, align 4
  %18 = getelementptr inbounds nuw i8, ptr %0, i64 268
  %19 = load i32, ptr %18, align 4
  %20 = getelementptr inbounds nuw i8, ptr %1, i64 168
  store i32 %19, ptr %20, align 4
  %21 = getelementptr inbounds nuw i8, ptr %0, i64 272
  %22 = load i32, ptr %21, align 8
  %23 = getelementptr inbounds nuw i8, ptr %1, i64 172
  store i32 %22, ptr %23, align 4
  %24 = getelementptr inbounds nuw i8, ptr %0, i64 276
  %25 = load i32, ptr %24, align 4
  %26 = getelementptr inbounds nuw i8, ptr %1, i64 176
  store i32 %25, ptr %26, align 4
  %27 = getelementptr inbounds nuw i8, ptr %0, i64 280
  %28 = load i32, ptr %27, align 8
  %29 = getelementptr inbounds nuw i8, ptr %1, i64 180
  store i32 %28, ptr %29, align 4
  %30 = getelementptr inbounds nuw i8, ptr %0, i64 288
  %31 = load ptr, ptr %30, align 8
  %32 = tail call fastcc noundef i32 @_ZN3ue2L9calc_jumpERKSt13unordered_mapIPKNS_15RoseInstructionEjSt4hashIS3_ESt8equal_toIS3_ESaISt4pairIKS3_jEEES3_S3_(ptr noundef nonnull align 8 dereferenceable(56) %3, ptr noundef %0, ptr noundef %31)
  %33 = getelementptr inbounds nuw i8, ptr %1, i64 184
  store i32 %32, ptr %33, align 4
  ret void
}